; Function Attrs: mustprogress uwtable
define noundef zeroext i1 @_ZNK32pxrInternal_v0_24__pxrReserved__17SdfTextFileFormat13WriteToStringERKNS_8SdfLayerEPNSt7__cxx1112basic_stringIcSt11char_traitsIcESaIcEEERKS9_(ptr noundef nonnull align 8 dereferenceable(113) %0, ptr noundef nonnull align 8 dereferenceable(557) %1, ptr noundef %2, ptr noundef nonnull align 8 dereferenceable(32) %3) unnamed_addr #1 align 2 personality ptr @__gxx_personality_v0 {
  %5 = alloca %"class.pxrInternal_v0_24__pxrReserved__::Sdf_StringOutput", align 8
  %6 = alloca %"class.std::__cxx11::basic_string", align 8
  %7 = getelementptr inbounds nuw i8, ptr %5, i64 48
  %8 = getelementptr inbounds i8, ptr %5, i64 64
  call void @_ZN32pxrInternal_v0_24__pxrReserved__14Sdf_TextOutputC2ERSo(ptr noundef nonnull align 8 dereferenceable(48) %5, ptr noundef nonnull align 8 dereferenceable(8) %8)
  invoke void @_ZNSt7__cxx1118basic_stringstreamIcSt11char_traitsIcESaIcEEC1Ev(ptr noundef nonnull align 8 dereferenceable(128) %7)
          to label %_ZN32pxrInternal_v0_24__pxrReserved__16Sdf_StringOutputC2Ev.exit unwind label %9

common.resume:                                    ; preds = %24, %9
  %common.resume.op = phi { ptr, i32 } [ %10, %9 ], [ %25, %24 ]
  call void @_ZN32pxrInternal_v0_24__pxrReserved__14Sdf_TextOutputD2Ev(ptr noundef nonnull align 8 dereferenceable(48) %5) #26
  resume { ptr, i32 } %common.resume.op

9:                                                ; preds = %4
  %10 = landingpad { ptr, i32 }
          cleanup
  br label %common.resume

_ZN32pxrInternal_v0_24__pxrReserved__16Sdf_StringOutputC2Ev.exit: ; preds = %4
  %11 = invoke noundef nonnull align 8 dereferenceable(32) ptr @_ZNK32pxrInternal_v0_24__pxrReserved__13SdfFileFormat13GetFileCookieB5cxx11Ev(ptr noundef nonnull align 8 dereferenceable(113) %0)
          to label %12 unwind label %24

12:                                               ; preds = %_ZN32pxrInternal_v0_24__pxrReserved__16Sdf_StringOutputC2Ev.exit
  %13 = invoke noundef nonnull align 8 dereferenceable(8) ptr @_ZNK32pxrInternal_v0_24__pxrReserved__13SdfFileFormat16GetVersionStringEv(ptr noundef nonnull align 8 dereferenceable(113) %0)
          to label %14 unwind label %24

14:                                               ; preds = %12
  %15 = load ptr, ptr %13, align 8
  %16 = ptrtoint ptr %15 to i64
  %17 = and i64 %16, -8
  %.not.i.i = icmp eq i64 %17, 0
  br i1 %.not.i.i, label %21, label %18

18:                                               ; preds = %14
  %19 = inttoptr i64 %17 to ptr
  %20 = getelementptr inbounds nuw i8, ptr %19, i64 16
  br label %_ZNK32pxrInternal_v0_24__pxrReserved__7TfTokencvRKNSt7__cxx1112basic_stringIcSt11char_traitsIcESaIcEEEEv.exit

21:                                               ; preds = %14
  %22 = invoke noundef nonnull align 8 dereferenceable(32) ptr @_ZN32pxrInternal_v0_24__pxrReserved__7TfToken15_GetEmptyStringB5cxx11Ev()
          to label %_ZNK32pxrInternal_v0_24__pxrReserved__7TfTokencvRKNSt7__cxx1112basic_stringIcSt11char_traitsIcESaIcEEEEv.exit unwind label %24

_ZNK32pxrInternal_v0_24__pxrReserved__7TfTokencvRKNSt7__cxx1112basic_stringIcSt11char_traitsIcESaIcEEEEv.exit: ; preds = %18, %21
  %23 = phi ptr [ %20, %18 ], [ %22, %21 ]
  invoke fastcc void @_ZN32pxrInternal_v0_24__pxrReserved__L11_WriteLayerEPKNS_8SdfLayerERNS_14Sdf_TextOutputERKNSt7__cxx1112basic_stringIcSt11char_traitsIcESaIcEEESC_SC_(ptr noundef nonnull %1, ptr noundef nonnull align 8 dereferenceable(48) %5, ptr noundef nonnull align 8 dereferenceable(32) %11, ptr noundef nonnull align 8 dereferenceable(32) %23, ptr noundef nonnull align 8 dereferenceable(32) %3)
          to label %26 unwind label %24

24:                                               ; preds = %_ZNK32pxrInternal_v0_24__pxrReserved__7TfTokencvRKNSt7__cxx1112basic_stringIcSt11char_traitsIcESaIcEEEEv.exit, %.noexc6, %26, %21, %12, %_ZN32pxrInternal_v0_24__pxrReserved__16Sdf_StringOutputC2Ev.exit
  %25 = landingpad { ptr, i32 }
          cleanup
  call void @_ZNSt7__cxx1118basic_stringstreamIcSt11char_traitsIcESaIcEED1Ev(ptr noundef nonnull align 8 dereferenceable(128) %7) #26
  br label %common.resume

26:                                               ; preds = %_ZNK32pxrInternal_v0_24__pxrReserved__7TfTokencvRKNSt7__cxx1112basic_stringIcSt11char_traitsIcESaIcEEEEv.exit
  %27 = invoke noundef zeroext i1 @_ZN32pxrInternal_v0_24__pxrReserved__14Sdf_TextOutput5CloseEv(ptr noundef nonnull align 8 dereferenceable(48) %5)
          to label %.noexc6 unwind label %24

.noexc6:                                          ; preds = %26
  invoke void @_ZNKSt7__cxx1118basic_stringstreamIcSt11char_traitsIcESaIcEE3strEv(ptr dead_on_unwind nonnull writable sret(%"class.std::__cxx11::basic_string") align 8 %6, ptr noundef nonnull align 8 dereferenceable(128) %7)
          to label %_ZN32pxrInternal_v0_24__pxrReserved__16Sdf_StringOutput9GetStringB5cxx11Ev.exit unwind label %24

_ZN32pxrInternal_v0_24__pxrReserved__16Sdf_StringOutput9GetStringB5cxx11Ev.exit: ; preds = %.noexc6
  %28 = call noundef nonnull align 8 dereferenceable(32) ptr @_ZNSt7__cxx1112basic_stringIcSt11char_traitsIcESaIcEEaSEOS4_(ptr noundef nonnull align 8 dereferenceable(32) %2, ptr noundef nonnull align 8 dereferenceable(32) %6) #26
  call void @_ZNSt7__cxx1112basic_stringIcSt11char_traitsIcESaIcEED1Ev(ptr noundef nonnull align 8 dereferenceable(32) %6) #26
  call void @_ZNSt7__cxx1118basic_stringstreamIcSt11char_traitsIcESaIcEED1Ev(ptr noundef nonnull align 8 dereferenceable(128) %7) #26
  call void @_ZN32pxrInternal_v0_24__pxrReserved__14Sdf_TextOutputD2Ev(ptr noundef nonnull align 8 dereferenceable(48) %5) #26
  ret i1 true
}